; Function Attrs: mustprogress nounwind uwtable
define dso_local void @_ZNK4llvm15X86Disassembler18DisassemblerTables19emitContextDecisionERNS_11raw_ostreamES3_RjS4_S4_R15ContextDecisionPKc(ptr noundef nonnull align 8 dereferenceable(169) %0, ptr noundef nonnull align 8 dereferenceable(48) %1, ptr noundef nonnull align 8 dereferenceable(48) %2, ptr nocapture noundef nonnull align 4 dereferenceable(4) %3, ptr nocapture noundef nonnull align 4 dereferenceable(4) %4, ptr nocapture noundef nonnull align 4 dereferenceable(4) %5, ptr nocapture noundef nonnull readonly align 2 dereferenceable(28816896) %6, ptr noundef %7) local_unnamed_addr #0 align 2 {
  %9 = load i32, ptr %4, align 4
  %10 = tail call noundef nonnull align 8 dereferenceable(48) ptr @_ZN4llvm11raw_ostream6indentEj(ptr noundef nonnull align 8 dereferenceable(48) %2, i32 noundef %9) #17
  %11 = getelementptr inbounds nuw i8, ptr %10, i64 24
  %12 = load ptr, ptr %11, align 8
  %13 = getelementptr inbounds nuw i8, ptr %10, i64 32
  %14 = load ptr, ptr %13, align 8
  %15 = ptrtoint ptr %12 to i64
  %16 = ptrtoint ptr %14 to i64
  %17 = sub i64 %15, %16
  %18 = icmp ult i64 %17, 36
  br i1 %18, label %19, label %21

19:                                               ; preds = %8
  %20 = tail call noundef nonnull align 8 dereferenceable(48) ptr @_ZN4llvm11raw_ostream5writeEPKcm(ptr noundef nonnull align 8 dereferenceable(48) %10, ptr noundef nonnull @.str.16, i64 noundef 36) #17
  br label %_ZN4llvm11raw_ostreamlsEPKc.exit

21:                                               ; preds = %8
  tail call void @llvm.memcpy.p0.p0.i64(ptr noundef nonnull align 1 dereferenceable(36) %14, ptr noundef nonnull align 1 dereferenceable(36) @.str.16, i64 36, i1 false)
  %22 = load ptr, ptr %13, align 8
  %23 = getelementptr inbounds i8, ptr %22, i64 36
  store ptr %23, ptr %13, align 8
  br label %_ZN4llvm11raw_ostreamlsEPKc.exit

_ZN4llvm11raw_ostreamlsEPKc.exit:                 ; preds = %19, %21
  %.0.i.i = phi ptr [ %20, %19 ], [ %10, %21 ]
  %.not.i.i = icmp eq ptr %7, null
  br i1 %.not.i.i, label %_ZN4llvm11raw_ostreamlsEPKc.exit23, label %_ZN4llvm9StringRefC2EPKc.exit.i

_ZN4llvm9StringRefC2EPKc.exit.i:                  ; preds = %_ZN4llvm11raw_ostreamlsEPKc.exit
  %24 = tail call noundef i64 @strlen(ptr noundef nonnull dereferenceable(1) %7) #17
  %25 = getelementptr inbounds nuw i8, ptr %.0.i.i, i64 24
  %26 = load ptr, ptr %25, align 8
  %27 = getelementptr inbounds nuw i8, ptr %.0.i.i, i64 32
  %28 = load ptr, ptr %27, align 8
  %29 = ptrtoint ptr %26 to i64
  %30 = ptrtoint ptr %28 to i64
  %31 = sub i64 %29, %30
  %32 = icmp ugt i64 %24, %31
  br i1 %32, label %33, label %35

33:                                               ; preds = %_ZN4llvm9StringRefC2EPKc.exit.i
  %34 = tail call noundef nonnull align 8 dereferenceable(48) ptr @_ZN4llvm11raw_ostream5writeEPKcm(ptr noundef nonnull align 8 dereferenceable(48) %.0.i.i, ptr noundef nonnull %7, i64 noundef %24) #17
  br label %_ZN4llvm11raw_ostreamlsEPKc.exit23

35:                                               ; preds = %_ZN4llvm9StringRefC2EPKc.exit.i
  %.not.i2.i21 = icmp eq i64 %24, 0
  br i1 %.not.i2.i21, label %_ZN4llvm11raw_ostreamlsEPKc.exit23, label %36

36:                                               ; preds = %35
  tail call void @llvm.memcpy.p0.p0.i64(ptr align 1 %28, ptr nonnull align 1 %7, i64 %24, i1 false)
  %37 = load ptr, ptr %27, align 8
  %38 = getelementptr inbounds i8, ptr %37, i64 %24
  store ptr %38, ptr %27, align 8
  br label %_ZN4llvm11raw_ostreamlsEPKc.exit23

_ZN4llvm11raw_ostreamlsEPKc.exit23:               ; preds = %_ZN4llvm11raw_ostreamlsEPKc.exit, %33, %35, %36
  %.0.i.i22 = phi ptr [ %34, %33 ], [ %.0.i.i, %36 ], [ %.0.i.i, %35 ], [ %.0.i.i, %_ZN4llvm11raw_ostreamlsEPKc.exit ]
  %39 = getelementptr inbounds nuw i8, ptr %.0.i.i22, i64 24
  %40 = load ptr, ptr %39, align 8
  %41 = getelementptr inbounds nuw i8, ptr %.0.i.i22, i64 32
  %42 = load ptr, ptr %41, align 8
  %43 = ptrtoint ptr %40 to i64
  %44 = ptrtoint ptr %42 to i64
  %45 = sub i64 %43, %44
  %46 = icmp ult i64 %45, 27
  br i1 %46, label %47, label %49

47:                                               ; preds = %_ZN4llvm11raw_ostreamlsEPKc.exit23
  %48 = tail call noundef nonnull align 8 dereferenceable(48) ptr @_ZN4llvm11raw_ostream5writeEPKcm(ptr noundef nonnull align 8 dereferenceable(48) %.0.i.i22, ptr noundef nonnull @.str.17, i64 noundef 27) #17
  br label %_ZN4llvm11raw_ostreamlsEPKc.exit27

49:                                               ; preds = %_ZN4llvm11raw_ostreamlsEPKc.exit23
  tail call void @llvm.memcpy.p0.p0.i64(ptr noundef nonnull align 1 dereferenceable(27) %42, ptr noundef nonnull align 1 dereferenceable(27) @.str.17, i64 27, i1 false)
  %50 = load ptr, ptr %41, align 8
  %51 = getelementptr inbounds i8, ptr %50, i64 27
  store ptr %51, ptr %41, align 8
  br label %_ZN4llvm11raw_ostreamlsEPKc.exit27

_ZN4llvm11raw_ostreamlsEPKc.exit27:               ; preds = %47, %49
  %52 = load i32, ptr %4, align 4
  %53 = add i32 %52, 1
  store i32 %53, ptr %4, align 4
  %54 = getelementptr inbounds nuw i8, ptr %2, i64 24
  %55 = getelementptr inbounds nuw i8, ptr %2, i64 32
  br label %56

56:                                               ; preds = %_ZN4llvm11raw_ostreamlsEPKc.exit27, %_ZN4llvm11raw_ostreamlsEPKc.exit40
  %indvars.iv = phi i64 [ 0, %_ZN4llvm11raw_ostreamlsEPKc.exit27 ], [ %indvars.iv.next, %_ZN4llvm11raw_ostreamlsEPKc.exit40 ]
  %57 = load i32, ptr %4, align 4
  %58 = tail call noundef nonnull align 8 dereferenceable(48) ptr @_ZN4llvm11raw_ostream6indentEj(ptr noundef nonnull align 8 dereferenceable(48) %2, i32 noundef %57) #17
  %59 = getelementptr inbounds nuw i8, ptr %58, i64 24
  %60 = load ptr, ptr %59, align 8
  %61 = getelementptr inbounds nuw i8, ptr %58, i64 32
  %62 = load ptr, ptr %61, align 8
  %63 = ptrtoint ptr %60 to i64
  %64 = ptrtoint ptr %62 to i64
  %65 = sub i64 %63, %64
  %66 = icmp ult i64 %65, 2
  br i1 %66, label %67, label %69

67:                                               ; preds = %56
  %68 = tail call noundef nonnull align 8 dereferenceable(48) ptr @_ZN4llvm11raw_ostream5writeEPKcm(ptr noundef nonnull align 8 dereferenceable(48) %58, ptr noundef nonnull @.str.18, i64 noundef 2) #17
  br label %_ZN4llvm11raw_ostreamlsEPKc.exit31

69:                                               ; preds = %56
  store i16 10799, ptr %62, align 1
  %70 = load ptr, ptr %61, align 8
  %71 = getelementptr inbounds i8, ptr %70, i64 2
  store ptr %71, ptr %61, align 8
  br label %_ZN4llvm11raw_ostreamlsEPKc.exit31

_ZN4llvm11raw_ostreamlsEPKc.exit31:               ; preds = %67, %69
  %72 = trunc nuw nsw i64 %indvars.iv to i32
  %73 = tail call fastcc noundef ptr @_ZL16stringForContextN4llvm15X86Disassembler18InstructionContextE(i32 noundef %72)
  %74 = tail call noundef i64 @strlen(ptr noundef nonnull dereferenceable(1) %73) #17
  %75 = load ptr, ptr %54, align 8
  %76 = load ptr, ptr %55, align 8
  %77 = ptrtoint ptr %75 to i64
  %78 = ptrtoint ptr %76 to i64
  %79 = sub i64 %77, %78
  %80 = icmp ugt i64 %74, %79
  br i1 %80, label %81, label %83

81:                                               ; preds = %_ZN4llvm11raw_ostreamlsEPKc.exit31
  %82 = tail call noundef nonnull align 8 dereferenceable(48) ptr @_ZN4llvm11raw_ostream5writeEPKcm(ptr noundef nonnull align 8 dereferenceable(48) %2, ptr noundef nonnull %73, i64 noundef %74) #17
  %.pre = load ptr, ptr %55, align 8
  br label %_ZN4llvm11raw_ostreamlsEPKc.exit36

83:                                               ; preds = %_ZN4llvm11raw_ostreamlsEPKc.exit31
  %.not.i2.i34 = icmp eq i64 %74, 0
  br i1 %.not.i2.i34, label %_ZN4llvm11raw_ostreamlsEPKc.exit36, label %84

84:                                               ; preds = %83
  tail call void @llvm.memcpy.p0.p0.i64(ptr align 1 %76, ptr nonnull align 1 %73, i64 %74, i1 false)
  %85 = load ptr, ptr %55, align 8
  %86 = getelementptr inbounds i8, ptr %85, i64 %74
  store ptr %86, ptr %55, align 8
  br label %_ZN4llvm11raw_ostreamlsEPKc.exit36

_ZN4llvm11raw_ostreamlsEPKc.exit36:               ; preds = %81, %83, %84
  %87 = phi ptr [ %.pre, %81 ], [ %76, %83 ], [ %86, %84 ]
  %88 = load ptr, ptr %54, align 8
  %89 = ptrtoint ptr %88 to i64
  %90 = ptrtoint ptr %87 to i64
  %91 = sub i64 %89, %90
  %92 = icmp ult i64 %91, 3
  br i1 %92, label %93, label %95

93:                                               ; preds = %_ZN4llvm11raw_ostreamlsEPKc.exit36
  %94 = tail call noundef nonnull align 8 dereferenceable(48) ptr @_ZN4llvm11raw_ostream5writeEPKcm(ptr noundef nonnull align 8 dereferenceable(48) %2, ptr noundef nonnull @.str.19, i64 noundef 3) #17
  br label %_ZN4llvm11raw_ostreamlsEPKc.exit40

95:                                               ; preds = %_ZN4llvm11raw_ostreamlsEPKc.exit36
  tail call void @llvm.memcpy.p0.p0.i64(ptr noundef nonnull align 1 dereferenceable(3) %87, ptr noundef nonnull align 1 dereferenceable(3) @.str.19, i64 3, i1 false)
  %96 = load ptr, ptr %55, align 8
  %97 = getelementptr inbounds i8, ptr %96, i64 3
  store ptr %97, ptr %55, align 8
  br label %_ZN4llvm11raw_ostreamlsEPKc.exit40

_ZN4llvm11raw_ostreamlsEPKc.exit40:               ; preds = %93, %95
  %98 = getelementptr inbounds [219 x %struct.OpcodeDecision], ptr %6, i64 0, i64 %indvars.iv
  tail call void @_ZNK4llvm15X86Disassembler18DisassemblerTables18emitOpcodeDecisionERNS_11raw_ostreamES3_RjS4_S4_R14OpcodeDecision(ptr noundef nonnull align 8 dereferenceable(169) %0, ptr noundef nonnull align 8 dereferenceable(48) %1, ptr noundef nonnull align 8 dereferenceable(48) %2, ptr noundef nonnull align 4 dereferenceable(4) %3, ptr noundef nonnull align 4 dereferenceable(4) %4, ptr noundef nonnull align 4 dereferenceable(4) %5, ptr noundef nonnull align 2 dereferenceable(131584) %98)
  %indvars.iv.next = add nuw nsw i64 %indvars.iv, 1
  %exitcond.not = icmp eq i64 %indvars.iv.next, 219
  br i1 %exitcond.not, label %99, label %56, !llvm.loop !25

99:                                               ; preds = %_ZN4llvm11raw_ostreamlsEPKc.exit40
  %100 = load i32, ptr %4, align 4
  %101 = add i32 %100, -1
  store i32 %101, ptr %4, align 4
  %102 = tail call noundef nonnull align 8 dereferenceable(48) ptr @_ZN4llvm11raw_ostream6indentEj(ptr noundef nonnull align 8 dereferenceable(48) %2, i32 noundef %101) #17
  %103 = getelementptr inbounds nuw i8, ptr %102, i64 24
  %104 = load ptr, ptr %103, align 8
  %105 = getelementptr inbounds nuw i8, ptr %102, i64 32
  %106 = load ptr, ptr %105, align 8
  %107 = ptrtoint ptr %104 to i64
  %108 = ptrtoint ptr %106 to i64
  %109 = sub i64 %107, %108
  %110 = icmp ult i64 %109, 3
  br i1 %110, label %111, label %113

111:                                              ; preds = %99
  %112 = tail call noundef nonnull align 8 dereferenceable(48) ptr @_ZN4llvm11raw_ostream5writeEPKcm(ptr noundef nonnull align 8 dereferenceable(48) %102, ptr noundef nonnull @.str.20, i64 noundef 3) #17
  %.phi.trans.insert = getelementptr inbounds nuw i8, ptr %112, i64 32
  %.pre51 = load ptr, ptr %.phi.trans.insert, align 8
  br label %_ZN4llvm11raw_ostreamlsEPKc.exit44

113:                                              ; preds = %99
  tail call void @llvm.memcpy.p0.p0.i64(ptr noundef nonnull align 1 dereferenceable(3) %106, ptr noundef nonnull align 1 dereferenceable(3) @.str.20, i64 3, i1 false)
  %114 = load ptr, ptr %105, align 8
  %115 = getelementptr inbounds i8, ptr %114, i64 3
  store ptr %115, ptr %105, align 8
  br label %_ZN4llvm11raw_ostreamlsEPKc.exit44

_ZN4llvm11raw_ostreamlsEPKc.exit44:               ; preds = %111, %113
  %116 = phi ptr [ %.pre51, %111 ], [ %115, %113 ]
  %.0.i.i43 = phi ptr [ %112, %111 ], [ %102, %113 ]
  %117 = getelementptr inbounds nuw i8, ptr %.0.i.i43, i64 24
  %118 = load ptr, ptr %117, align 8
  %119 = icmp eq ptr %118, %116
  br i1 %119, label %120, label %122

120:                                              ; preds = %_ZN4llvm11raw_ostreamlsEPKc.exit44
  %121 = tail call noundef nonnull align 8 dereferenceable(48) ptr @_ZN4llvm11raw_ostream5writeEPKcm(ptr noundef nonnull align 8 dereferenceable(48) %.0.i.i43, ptr noundef nonnull @.str.14, i64 noundef 1) #17
  br label %_ZN4llvm11raw_ostreamlsEPKc.exit48

122:                                              ; preds = %_ZN4llvm11raw_ostreamlsEPKc.exit44
  %123 = getelementptr inbounds nuw i8, ptr %.0.i.i43, i64 32
  store i8 10, ptr %116, align 1
  %124 = load ptr, ptr %123, align 8
  %125 = getelementptr inbounds i8, ptr %124, i64 1
  store ptr %125, ptr %123, align 8
  br label %_ZN4llvm11raw_ostreamlsEPKc.exit48

_ZN4llvm11raw_ostreamlsEPKc.exit48:               ; preds = %120, %122
  ret void
}